target datalayout = "e-m:e-p270:32:32-p271:32:32-p272:64:64-i64:64-i128:128-f80:128-n8:16:32:64-S128"
target triple = "x86_64-pc-linux-gnu"

%struct.vp56_context = type { ptr, %struct.H264ChromaContext, %struct.HpelDSPContext, %struct.VideoDSPContext, %struct.VP3DSPContext, %struct.VP56DSPContext, [64 x i8], [4 x ptr], ptr, ptr, %struct.VPXRangeCoder, %struct.VPXRangeCoder, ptr, i32, i32, [4 x i32], [4 x i32], i32, i32, [6 x i32], i32, i16, i16, ptr, [4 x %struct.VP56RefDc], [6 x i32], [3 x [3 x i16]], i32, ptr, [8 x i8], [6 x [64 x i16]], [6 x i32], ptr, [6 x %struct.VP56mv], [2 x %struct.VP56mv], i32, i32, i32, i32, i32, i32, i32, [4 x i8], [256 x i32], [4 x [64 x i8]], [4 x i8], i32, i32, i32, i32, i32, i32, i32, [4 x i64], ptr, ptr, ptr, ptr, ptr, ptr, ptr, ptr, ptr, ptr, %struct.VP56Model, i32, %struct.GetBitContext, [2 x %struct.VLC], [2 x %struct.VLC], [2 x [3 x [4 x %struct.VLC]]], [2 x [2 x i32]], i32, i32 }
%struct.H264ChromaContext = type { [4 x ptr], [4 x ptr] }
%struct.HpelDSPContext = type { [4 x [4 x ptr]], [4 x [4 x ptr]], [4 x [4 x ptr]], [4 x ptr] }
%struct.VideoDSPContext = type { ptr, ptr }
%struct.VP3DSPContext = type { ptr, ptr, ptr, ptr, ptr, ptr, ptr, ptr }
%struct.VP56DSPContext = type { ptr, ptr, ptr }
%struct.VPXRangeCoder = type { i32, i32, ptr, ptr, i32, i32 }
%struct.VP56RefDc = type { i8, i32, i16 }
%struct.VP56mv = type { i16, i16 }
%struct.VP56Model = type { [64 x i8], [64 x i8], [64 x i8], [2 x i8], [2 x i8], [2 x [2 x i8]], [2 x [7 x i8]], [2 x [8 x i8]], [2 x [11 x i8]], [2 x [3 x [6 x [11 x i8]]]], [2 x [3 x [3 x [6 x [5 x i8]]]]], [2 x [36 x [5 x i8]]], [2 x [14 x i8]], [3 x [10 x [10 x i8]]], [3 x [10 x [2 x i8]]] }
%struct.GetBitContext = type { ptr, ptr, i32, i32, i32 }
%struct.VLC = type { i32, ptr, i32, i32 }

@ff_vp56_def_mb_types_stats = external constant [3 x [10 x [2 x i8]]], align 16
@vp6_def_fdv_vector_model = internal constant [2 x [8 x i8]] [[8 x i8] c"\F7\D2\87D\8A\DC\EF\F6", [8 x i8] c"\F4\B8\C9,\AD\DD\EF\FD"], align 16
@vp6_def_pdv_vector_model = internal constant [2 x [7 x i8]] [[7 x i8] c"\E1\92\AC\93\D6'\9C", [7 x i8] c"\CC\AAw\EB\8C\E6\E4"], align 1
@vp6_def_runv_coeff_model = internal constant [2 x [14 x i8]] [[14 x i8] c"\C6\C5\C4\92\C6\CC\A9\8E\82\88\95\95\BF\F9", [14 x i8] c"\87\C9\B5\9Abu\84~\92\A9\B8\F0\F6\FE"], align 16

; Function Attrs: nounwind uwtable
define internal void @vp6_coeff_order_table_init(ptr noundef %0) #3 {
  %2 = alloca ptr, align 8
  %3 = alloca i32, align 4
  %4 = alloca i32, align 4
  %5 = alloca i32, align 4
  %6 = alloca i32, align 4
  %7 = alloca i32, align 4
  store ptr %0, ptr %2, align 8, !tbaa !29
  call void @llvm.lifetime.start.p0(i64 4, ptr %3) #9
  call void @llvm.lifetime.start.p0(i64 4, ptr %4) #9
  call void @llvm.lifetime.start.p0(i64 4, ptr %5) #9
  store i32 1, ptr %5, align 4, !tbaa !32
  %8 = load ptr, ptr %2, align 8, !tbaa !29
  %9 = getelementptr inbounds nuw %struct.vp56_context, ptr %8, i32 0, i32 63
  %10 = load ptr, ptr %9, align 8, !tbaa !61
  %11 = getelementptr inbounds nuw %struct.VP56Model, ptr %10, i32 0, i32 1
  %12 = getelementptr inbounds [64 x i8], ptr %11, i64 0, i64 0
  store i8 0, ptr %12, align 1, !tbaa !69
  store i32 0, ptr %3, align 4, !tbaa !32
  br label %13

13:                                               ; preds = %48, %1
  %14 = load i32, ptr %3, align 4, !tbaa !32
  %15 = icmp slt i32 %14, 16
  br i1 %15, label %16, label %51

16:                                               ; preds = %13
  store i32 1, ptr %4, align 4, !tbaa !32
  br label %17

17:                                               ; preds = %44, %16
  %18 = load i32, ptr %4, align 4, !tbaa !32
  %19 = icmp slt i32 %18, 64
  br i1 %19, label %20, label %47

20:                                               ; preds = %17
  %21 = load ptr, ptr %2, align 8, !tbaa !29
  %22 = getelementptr inbounds nuw %struct.vp56_context, ptr %21, i32 0, i32 63
  %23 = load ptr, ptr %22, align 8, !tbaa !61
  %24 = getelementptr inbounds nuw %struct.VP56Model, ptr %23, i32 0, i32 0
  %25 = load i32, ptr %4, align 4, !tbaa !32
  %26 = sext i32 %25 to i64
  %27 = getelementptr inbounds [64 x i8], ptr %24, i64 0, i64 %26
  %28 = load i8, ptr %27, align 1, !tbaa !69
  %29 = zext i8 %28 to i32
  %30 = load i32, ptr %3, align 4, !tbaa !32
  %31 = icmp eq i32 %29, %30
  br i1 %31, label %32, label %43

32:                                               ; preds = %20
  %33 = load i32, ptr %4, align 4, !tbaa !32
  %34 = trunc i32 %33 to i8
  %35 = load ptr, ptr %2, align 8, !tbaa !29
  %36 = getelementptr inbounds nuw %struct.vp56_context, ptr %35, i32 0, i32 63
  %37 = load ptr, ptr %36, align 8, !tbaa !61
  %38 = getelementptr inbounds nuw %struct.VP56Model, ptr %37, i32 0, i32 1
  %39 = load i32, ptr %5, align 4, !tbaa !32
  %40 = add nsw i32 %39, 1
  store i32 %40, ptr %5, align 4, !tbaa !32
  %41 = sext i32 %39 to i64
  %42 = getelementptr inbounds [64 x i8], ptr %38, i64 0, i64 %41
  store i8 %34, ptr %42, align 1, !tbaa !69
  br label %43

43:                                               ; preds = %32, %20
  br label %44

44:                                               ; preds = %43
  %45 = load i32, ptr %4, align 4, !tbaa !32
  %46 = add nsw i32 %45, 1
  store i32 %46, ptr %4, align 4, !tbaa !32
  br label %17, !llvm.loop !142

47:                                               ; preds = %17
  br label %48

48:                                               ; preds = %47
  %49 = load i32, ptr %3, align 4, !tbaa !32
  %50 = add nsw i32 %49, 1
  store i32 %50, ptr %3, align 4, !tbaa !32
  br label %13, !llvm.loop !143

51:                                               ; preds = %13
  store i32 0, ptr %5, align 4, !tbaa !32
  br label %52

52:                                               ; preds = %97, %51
  %53 = load i32, ptr %5, align 4, !tbaa !32
  %54 = icmp slt i32 %53, 64
  br i1 %54, label %55, label %100

55:                                               ; preds = %52
  call void @llvm.lifetime.start.p0(i64 4, ptr %6) #9
  store i32 0, ptr %6, align 4, !tbaa !32
  store i32 0, ptr %3, align 4, !tbaa !32
  br label %56

56:                                               ; preds = %76, %55
  %57 = load i32, ptr %3, align 4, !tbaa !32
  %58 = load i32, ptr %5, align 4, !tbaa !32
  %59 = icmp sle i32 %57, %58
  br i1 %59, label %60, label %79

60:                                               ; preds = %56
  call void @llvm.lifetime.start.p0(i64 4, ptr %7) #9
  %61 = load ptr, ptr %2, align 8, !tbaa !29
  %62 = getelementptr inbounds nuw %struct.vp56_context, ptr %61, i32 0, i32 63
  %63 = load ptr, ptr %62, align 8, !tbaa !61
  %64 = getelementptr inbounds nuw %struct.VP56Model, ptr %63, i32 0, i32 1
  %65 = load i32, ptr %3, align 4, !tbaa !32
  %66 = sext i32 %65 to i64
  %67 = getelementptr inbounds [64 x i8], ptr %64, i64 0, i64 %66
  %68 = load i8, ptr %67, align 1, !tbaa !69
  %69 = zext i8 %68 to i32
  store i32 %69, ptr %7, align 4, !tbaa !32
  %70 = load i32, ptr %7, align 4, !tbaa !32
  %71 = load i32, ptr %6, align 4, !tbaa !32
  %72 = icmp sgt i32 %70, %71
  br i1 %72, label %73, label %75

73:                                               ; preds = %60
  %74 = load i32, ptr %7, align 4, !tbaa !32
  store i32 %74, ptr %6, align 4, !tbaa !32
  br label %75

75:                                               ; preds = %73, %60
  call void @llvm.lifetime.end.p0(i64 4, ptr %7) #9
  br label %76

76:                                               ; preds = %75
  %77 = load i32, ptr %3, align 4, !tbaa !32
  %78 = add nsw i32 %77, 1
  store i32 %78, ptr %3, align 4, !tbaa !32
  br label %56, !llvm.loop !144

79:                                               ; preds = %56
  %80 = load ptr, ptr %2, align 8, !tbaa !29
  %81 = getelementptr inbounds nuw %struct.vp56_context, ptr %80, i32 0, i32 13
  %82 = load i32, ptr %81, align 8, !tbaa !119
  %83 = icmp sgt i32 %82, 6
  br i1 %83, label %84, label %87

84:                                               ; preds = %79
  %85 = load i32, ptr %6, align 4, !tbaa !32
  %86 = add nsw i32 %85, 1
  store i32 %86, ptr %6, align 4, !tbaa !32
  br label %87

87:                                               ; preds = %84, %79
  %88 = load i32, ptr %6, align 4, !tbaa !32
  %89 = trunc i32 %88 to i8
  %90 = load ptr, ptr %2, align 8, !tbaa !29
  %91 = getelementptr inbounds nuw %struct.vp56_context, ptr %90, i32 0, i32 63
  %92 = load ptr, ptr %91, align 8, !tbaa !61
  %93 = getelementptr inbounds nuw %struct.VP56Model, ptr %92, i32 0, i32 2
  %94 = load i32, ptr %5, align 4, !tbaa !32
  %95 = sext i32 %94 to i64
  %96 = getelementptr inbounds [64 x i8], ptr %93, i64 0, i64 %95
  store i8 %89, ptr %96, align 1, !tbaa !69
  call void @llvm.lifetime.end.p0(i64 4, ptr %6) #9
  br label %97

97:                                               ; preds = %87
  %98 = load i32, ptr %5, align 4, !tbaa !32
  %99 = add nsw i32 %98, 1
  store i32 %99, ptr %5, align 4, !tbaa !32
  br label %52, !llvm.loop !145

100:                                              ; preds = %52
  call void @llvm.lifetime.end.p0(i64 4, ptr %5) #9
  call void @llvm.lifetime.end.p0(i64 4, ptr %4) #9
  call void @llvm.lifetime.end.p0(i64 4, ptr %3) #9
  ret void
}

; Function Attrs: nounwind uwtable
define internal void @vp6_default_models_init(ptr noundef %0) #3 {
  %2 = alloca ptr, align 8
  %3 = alloca ptr, align 8
  store ptr %0, ptr %2, align 8, !tbaa !29
  call void @llvm.lifetime.start.p0(i64 8, ptr %3) #9
  %4 = load ptr, ptr %2, align 8, !tbaa !29
  %5 = getelementptr inbounds nuw %struct.vp56_context, ptr %4, i32 0, i32 63
  %6 = load ptr, ptr %5, align 8, !tbaa !61
  store ptr %6, ptr %3, align 8, !tbaa !62
  %7 = load ptr, ptr %3, align 8, !tbaa !62
  %8 = getelementptr inbounds nuw %struct.VP56Model, ptr %7, i32 0, i32 4
  %9 = getelementptr inbounds [2 x i8], ptr %8, i64 0, i64 0
  store i8 -94, ptr %9, align 1, !tbaa !69
  %10 = load ptr, ptr %3, align 8, !tbaa !62
  %11 = getelementptr inbounds nuw %struct.VP56Model, ptr %10, i32 0, i32 4
  %12 = getelementptr inbounds [2 x i8], ptr %11, i64 0, i64 1
  store i8 -92, ptr %12, align 1, !tbaa !69
  %13 = load ptr, ptr %3, align 8, !tbaa !62
  %14 = getelementptr inbounds nuw %struct.VP56Model, ptr %13, i32 0, i32 3
  %15 = getelementptr inbounds [2 x i8], ptr %14, i64 0, i64 0
  store i8 -128, ptr %15, align 1, !tbaa !69
  %16 = load ptr, ptr %3, align 8, !tbaa !62
  %17 = getelementptr inbounds nuw %struct.VP56Model, ptr %16, i32 0, i32 3
  %18 = getelementptr inbounds [2 x i8], ptr %17, i64 0, i64 1
  store i8 -128, ptr %18, align 1, !tbaa !69
  %19 = load ptr, ptr %3, align 8, !tbaa !62
  %20 = getelementptr inbounds nuw %struct.VP56Model, ptr %19, i32 0, i32 14
  %21 = getelementptr inbounds [3 x [10 x [2 x i8]]], ptr %20, i64 0, i64 0
  call void @llvm.memcpy.p0.p0.i64(ptr align 1 %21, ptr align 16 @ff_vp56_def_mb_types_stats, i64 60, i1 false)
  %22 = load ptr, ptr %3, align 8, !tbaa !62
  %23 = getelementptr inbounds nuw %struct.VP56Model, ptr %22, i32 0, i32 7
  %24 = getelementptr inbounds [2 x [8 x i8]], ptr %23, i64 0, i64 0
  call void @llvm.memcpy.p0.p0.i64(ptr align 1 %24, ptr align 16 @vp6_def_fdv_vector_model, i64 16, i1 false)
  %25 = load ptr, ptr %3, align 8, !tbaa !62
  %26 = getelementptr inbounds nuw %struct.VP56Model, ptr %25, i32 0, i32 6
  %27 = getelementptr inbounds [2 x [7 x i8]], ptr %26, i64 0, i64 0
  call void @llvm.memcpy.p0.p0.i64(ptr align 1 %27, ptr align 1 @vp6_def_pdv_vector_model, i64 14, i1 false)
  %28 = load ptr, ptr %3, align 8, !tbaa !62
  %29 = getelementptr inbounds nuw %struct.VP56Model, ptr %28, i32 0, i32 12
  %30 = getelementptr inbounds [2 x [14 x i8]], ptr %29, i64 0, i64 0
  call void @llvm.memcpy.p0.p0.i64(ptr align 1 %30, ptr align 16 @vp6_def_runv_coeff_model, i64 28, i1 false)
  %31 = load ptr, ptr %3, align 8, !tbaa !62
  %32 = getelementptr inbounds nuw %struct.VP56Model, ptr %31, i32 0, i32 0
  %33 = getelementptr inbounds [64 x i8], ptr %32, i64 0, i64 0
  %34 = load ptr, ptr %2, align 8, !tbaa !29
  %35 = getelementptr inbounds nuw %struct.vp56_context, ptr %34, i32 0, i32 32
  %36 = load ptr, ptr %35, align 8, !tbaa !80
  call void @llvm.memcpy.p0.p0.i64(ptr align 1 %33, ptr align 1 %36, i64 64, i1 false)
  %37 = load ptr, ptr %2, align 8, !tbaa !29
  call void @vp6_coeff_order_table_init(ptr noundef %37)
  call void @llvm.lifetime.end.p0(i64 8, ptr %3) #9
  ret void
}