; Function Attrs: nofree norecurse nosync nounwind memory(readwrite, inaccessiblemem: none) uwtable
define internal void @vp6_default_models_init(ptr noundef readonly captures(none) %0) #5 {
  %2 = getelementptr inbounds nuw i8, ptr %0, i64 3256
  %3 = load ptr, ptr %2, align 8, !tbaa !55
  %4 = getelementptr inbounds nuw i8, ptr %3, i64 194
  store i8 -94, ptr %4, align 1, !tbaa !61
  %5 = getelementptr inbounds nuw i8, ptr %3, i64 195
  store i8 -92, ptr %5, align 1, !tbaa !61
  %6 = getelementptr inbounds nuw i8, ptr %3, i64 192
  store i8 -128, ptr %6, align 1, !tbaa !61
  %7 = getelementptr inbounds nuw i8, ptr %3, i64 193
  store i8 -128, ptr %7, align 1, !tbaa !61
  %8 = getelementptr inbounds nuw i8, ptr %3, i64 1876
  tail call void @llvm.memcpy.p0.p0.i64(ptr noundef nonnull align 1 dereferenceable(60) %8, ptr noundef nonnull align 16 dereferenceable(60) @ff_vp56_def_mb_types_stats, i64 60, i1 false)
  %9 = getelementptr inbounds nuw i8, ptr %3, i64 214
  tail call void @llvm.memcpy.p0.p0.i64(ptr noundef nonnull align 1 dereferenceable(16) %9, ptr noundef nonnull align 16 dereferenceable(16) @vp6_def_fdv_vector_model, i64 16, i1 false)
  %10 = getelementptr inbounds nuw i8, ptr %3, i64 200
  tail call void @llvm.memcpy.p0.p0.i64(ptr noundef nonnull align 1 dereferenceable(14) %10, ptr noundef nonnull align 1 dereferenceable(14) @vp6_def_pdv_vector_model, i64 14, i1 false)
  %11 = getelementptr inbounds nuw i8, ptr %3, i64 1548
  tail call void @llvm.memcpy.p0.p0.i64(ptr noundef nonnull align 1 dereferenceable(28) %11, ptr noundef nonnull align 16 dereferenceable(28) @vp6_def_runv_coeff_model, i64 28, i1 false)
  %12 = getelementptr inbounds nuw i8, ptr %0, i64 1768
  %13 = load ptr, ptr %12, align 8, !tbaa !85
  tail call void @llvm.memcpy.p0.p0.i64(ptr noundef nonnull align 1 dereferenceable(64) %3, ptr noundef nonnull align 1 dereferenceable(64) %13, i64 64, i1 false)
  %14 = load ptr, ptr %2, align 8, !tbaa !55
  %15 = getelementptr inbounds nuw i8, ptr %14, i64 64
  store i8 0, ptr %15, align 1, !tbaa !61
  br label %.preheader34.i

.preheader34.i:                                   ; preds = %30, %1
  %.038.i = phi i32 [ 0, %1 ], [ %31, %30 ]
  %.02737.i = phi i32 [ 1, %1 ], [ %.229.i, %30 ]
  br label %17

.preheader33.i:                                   ; preds = %30
  %16 = getelementptr inbounds nuw i8, ptr %0, i64 776
  br label %.preheader.i

17:                                               ; preds = %29, %.preheader34.i
  %indvars.iv.i = phi i64 [ 1, %.preheader34.i ], [ %indvars.iv.next.i, %29 ]
  %.12836.i = phi i32 [ %.02737.i, %.preheader34.i ], [ %.229.i, %29 ]
  %18 = load ptr, ptr %2, align 8, !tbaa !55
  %19 = getelementptr inbounds nuw [64 x i8], ptr %18, i64 0, i64 %indvars.iv.i
  %20 = load i8, ptr %19, align 1, !tbaa !61
  %21 = zext i8 %20 to i32
  %22 = icmp eq i32 %.038.i, %21
  br i1 %22, label %23, label %29

23:                                               ; preds = %17
  %24 = trunc i64 %indvars.iv.i to i8
  %25 = getelementptr inbounds nuw i8, ptr %18, i64 64
  %26 = add nsw i32 %.12836.i, 1
  %27 = sext i32 %.12836.i to i64
  %28 = getelementptr inbounds [64 x i8], ptr %25, i64 0, i64 %27
  store i8 %24, ptr %28, align 1, !tbaa !61
  br label %29

29:                                               ; preds = %23, %17
  %.229.i = phi i32 [ %26, %23 ], [ %.12836.i, %17 ]
  %indvars.iv.next.i = add nuw nsw i64 %indvars.iv.i, 1
  %exitcond.not.i = icmp eq i64 %indvars.iv.next.i, 64
  br i1 %exitcond.not.i, label %30, label %17, !llvm.loop !86

30:                                               ; preds = %29
  %31 = add nuw nsw i32 %.038.i, 1
  %exitcond43.not.i = icmp eq i32 %31, 16
  br i1 %exitcond43.not.i, label %.preheader33.i, label %.preheader34.i, !llvm.loop !87

.preheader.i:                                     ; preds = %38, %.preheader33.i
  %indvars.iv52.i = phi i64 [ 0, %.preheader33.i ], [ %indvars.iv.next53.i, %38 ]
  %indvars.iv50.i = phi i64 [ 1, %.preheader33.i ], [ %indvars.iv.next51.i, %38 ]
  %32 = load ptr, ptr %2, align 8, !tbaa !55
  %33 = getelementptr inbounds nuw i8, ptr %32, i64 64
  br label %34

34:                                               ; preds = %34, %.preheader.i
  %indvars.iv44.i = phi i64 [ 0, %.preheader.i ], [ %indvars.iv.next45.i, %34 ]
  %.02539.i = phi i32 [ 0, %.preheader.i ], [ %spec.select.i, %34 ]
  %35 = getelementptr inbounds nuw [64 x i8], ptr %33, i64 0, i64 %indvars.iv44.i
  %36 = load i8, ptr %35, align 1, !tbaa !61
  %37 = zext i8 %36 to i32
  %spec.select.i = tail call i32 @llvm.umax.i32(i32 %.02539.i, i32 %37)
  %indvars.iv.next45.i = add nuw nsw i64 %indvars.iv44.i, 1
  %exitcond49.not.i = icmp eq i64 %indvars.iv.next45.i, %indvars.iv50.i
  br i1 %exitcond49.not.i, label %38, label %34, !llvm.loop !88

38:                                               ; preds = %34
  %39 = load i32, ptr %16, align 8, !tbaa !89
  %40 = icmp sgt i32 %39, 6
  %41 = zext i1 %40 to i32
  %spec.select32.i = add nuw nsw i32 %spec.select.i, %41
  %42 = trunc i32 %spec.select32.i to i8
  %43 = getelementptr inbounds nuw i8, ptr %32, i64 128
  %44 = getelementptr inbounds nuw [64 x i8], ptr %43, i64 0, i64 %indvars.iv52.i
  store i8 %42, ptr %44, align 1, !tbaa !61
  %indvars.iv.next53.i = add nuw nsw i64 %indvars.iv52.i, 1
  %indvars.iv.next51.i = add nuw nsw i64 %indvars.iv50.i, 1
  %exitcond57.not.i = icmp eq i64 %indvars.iv.next53.i, 64
  br i1 %exitcond57.not.i, label %vp6_coeff_order_table_init.exit, label %.preheader.i, !llvm.loop !90

vp6_coeff_order_table_init.exit:                  ; preds = %38
  ret void
}